; Function Attrs: mustprogress uwtable
define void @_ZNK2cv5MatOp3addERKNS_7MatExprES3_RS1_(ptr noundef nonnull readnone align 8 dereferenceable(8) %0, ptr noundef nonnull align 8 dereferenceable(352) %1, ptr noundef nonnull align 8 dereferenceable(352) %2, ptr noundef nonnull align 8 dereferenceable(352) %3) unnamed_addr #8 align 2 personality ptr @__gxx_personality_v0 {
  %5 = alloca %"class.cv::utils::trace::details::Region", align 8
  %6 = alloca %"class.cv::Scalar_", align 16
  %7 = alloca %"class.cv::Mat", align 8
  %8 = alloca %"class.cv::Mat", align 8
  call void @_ZN2cv5utils5trace7details6RegionC1ERKNS3_21LocationStaticStorageE(ptr noundef nonnull align 8 dereferenceable(12) %5, ptr noundef nonnull align 8 dereferenceable(32) @_ZZNK2cv5MatOp3addERKNS_7MatExprES3_RS1_E25__cv_trace_location_fn328)
  %9 = load ptr, ptr %2, align 8
  %10 = icmp eq ptr %9, %0
  br i1 %10, label %11, label %67

11:                                               ; preds = %4
  call void @llvm.memset.p0.i64(ptr noundef nonnull align 16 dereferenceable(32) %6, i8 0, i64 32, i1 false)
  call void @_ZN2cv3MatC1Ev(ptr noundef nonnull align 8 dereferenceable(96) %7) #21
  call void @_ZN2cv3MatC1Ev(ptr noundef nonnull align 8 dereferenceable(96) %8) #21
  %.val37 = load ptr, ptr %1, align 8
  %12 = icmp eq ptr %.val37, @_ZN2cvL13g_MatOp_AddExE
  br i1 %12, label %13, label %34

13:                                               ; preds = %11
  %14 = getelementptr inbounds i8, ptr %1, i64 128
  %15 = load ptr, ptr %14, align 8
  %.not = icmp eq ptr %15, null
  %16 = getelementptr inbounds i8, ptr %1, i64 312
  %17 = load double, ptr %16, align 8
  %18 = fcmp oeq double %17, 0.000000e+00
  %or.cond = select i1 %.not, i1 true, i1 %18
  br i1 %or.cond, label %19, label %34

19:                                               ; preds = %13
  %20 = getelementptr inbounds i8, ptr %1, i64 16
  %21 = invoke noundef nonnull align 8 dereferenceable(96) ptr @_ZN2cv3MataSERKS0_(ptr noundef nonnull align 8 dereferenceable(96) %7, ptr noundef nonnull align 8 dereferenceable(96) %20)
          to label %22 unwind label %32

22:                                               ; preds = %19
  %23 = getelementptr inbounds i8, ptr %1, i64 304
  %24 = load double, ptr %23, align 8
  %25 = getelementptr inbounds i8, ptr %1, i64 320
  %26 = load <2 x double>, ptr %25, align 8
  store <2 x double> %26, ptr %6, align 16
  %27 = getelementptr inbounds i8, ptr %1, i64 336
  %28 = getelementptr inbounds i8, ptr %6, i64 16
  %29 = load <2 x double>, ptr %27, align 8
  store <2 x double> %29, ptr %28, align 16
  br label %38

30:                                               ; preds = %67
  %31 = landingpad { ptr, i32 }
          cleanup
  br label %78

32:                                               ; preds = %65, %61, %48, %34, %19
  %33 = landingpad { ptr, i32 }
          cleanup
  call void @_ZN2cv3MatD1Ev(ptr noundef nonnull align 8 dereferenceable(96) %8) #21
  call void @_ZN2cv3MatD1Ev(ptr noundef nonnull align 8 dereferenceable(96) %7) #21
  br label %78

34:                                               ; preds = %13, %11
  %35 = load ptr, ptr %.val37, align 8
  %36 = getelementptr inbounds i8, ptr %35, i64 24
  %37 = load ptr, ptr %36, align 8
  invoke void %37(ptr noundef nonnull align 8 dereferenceable(8) %.val37, ptr noundef nonnull align 8 dereferenceable(352) %1, ptr noundef nonnull align 8 dereferenceable(96) %7, i32 noundef -1)
          to label %38 unwind label %32

38:                                               ; preds = %34, %22
  %.028 = phi double [ %24, %22 ], [ 1.000000e+00, %34 ]
  %39 = phi <2 x double> [ %26, %22 ], [ zeroinitializer, %34 ]
  %40 = phi <2 x double> [ %29, %22 ], [ zeroinitializer, %34 ]
  %.val = load ptr, ptr %2, align 8
  %41 = icmp eq ptr %.val, @_ZN2cvL13g_MatOp_AddExE
  br i1 %41, label %42, label %61

42:                                               ; preds = %38
  %43 = getelementptr inbounds i8, ptr %2, i64 128
  %44 = load ptr, ptr %43, align 8
  %.not30 = icmp eq ptr %44, null
  %45 = getelementptr inbounds i8, ptr %2, i64 312
  %46 = load double, ptr %45, align 8
  %47 = fcmp oeq double %46, 0.000000e+00
  %or.cond36 = select i1 %.not30, i1 true, i1 %47
  br i1 %or.cond36, label %48, label %61

48:                                               ; preds = %42
  %49 = getelementptr inbounds i8, ptr %2, i64 16
  %50 = invoke noundef nonnull align 8 dereferenceable(96) ptr @_ZN2cv3MataSERKS0_(ptr noundef nonnull align 8 dereferenceable(96) %8, ptr noundef nonnull align 8 dereferenceable(96) %49)
          to label %51 unwind label %32

51:                                               ; preds = %48
  %52 = getelementptr inbounds i8, ptr %2, i64 304
  %53 = load double, ptr %52, align 8
  %54 = getelementptr inbounds i8, ptr %2, i64 320
  %55 = load <2 x double>, ptr %54, align 8
  %56 = fadd <2 x double> %55, %39
  store <2 x double> %56, ptr %6, align 16
  %57 = getelementptr inbounds i8, ptr %2, i64 336
  %58 = getelementptr inbounds i8, ptr %6, i64 16
  %59 = load <2 x double>, ptr %57, align 8
  %60 = fadd <2 x double> %59, %40
  store <2 x double> %60, ptr %58, align 16
  br label %65

61:                                               ; preds = %42, %38
  %62 = load ptr, ptr %.val, align 8
  %63 = getelementptr inbounds i8, ptr %62, i64 24
  %64 = load ptr, ptr %63, align 8
  invoke void %64(ptr noundef nonnull align 8 dereferenceable(8) %.val, ptr noundef nonnull align 8 dereferenceable(352) %2, ptr noundef nonnull align 8 dereferenceable(96) %8, i32 noundef -1)
          to label %65 unwind label %32

65:                                               ; preds = %61, %51
  %.027 = phi double [ %53, %51 ], [ 1.000000e+00, %61 ]
  invoke void @_ZN2cv11MatOp_AddEx8makeExprERNS_7MatExprERKNS_3MatES5_ddRKNS_7Scalar_IdEE(ptr noundef nonnull align 8 dereferenceable(352) %3, ptr noundef nonnull align 8 dereferenceable(96) %7, ptr noundef nonnull align 8 dereferenceable(96) %8, double noundef %.028, double noundef %.027, ptr noundef nonnull align 8 dereferenceable(32) %6)
          to label %66 unwind label %32

66:                                               ; preds = %65
  call void @_ZN2cv3MatD1Ev(ptr noundef nonnull align 8 dereferenceable(96) %8) #21
  call void @_ZN2cv3MatD1Ev(ptr noundef nonnull align 8 dereferenceable(96) %7) #21
  br label %71

67:                                               ; preds = %4
  %68 = load ptr, ptr %9, align 8
  %69 = getelementptr inbounds i8, ptr %68, i64 104
  %70 = load ptr, ptr %69, align 8
  invoke void %70(ptr noundef nonnull align 8 dereferenceable(8) %9, ptr noundef nonnull align 8 dereferenceable(352) %1, ptr noundef nonnull align 8 dereferenceable(352) %2, ptr noundef nonnull align 8 dereferenceable(352) %3)
          to label %71 unwind label %30

71:                                               ; preds = %67, %66
  %72 = getelementptr inbounds i8, ptr %5, i64 8
  %73 = load i32, ptr %72, align 8
  %.not.i = icmp eq i32 %73, 0
  br i1 %.not.i, label %_ZN2cv5utils5trace7details6RegionD2Ev.exit, label %74

74:                                               ; preds = %71
  invoke void @_ZN2cv5utils5trace7details6Region7destroyEv(ptr noundef nonnull align 8 dereferenceable(12) %5)
          to label %_ZN2cv5utils5trace7details6RegionD2Ev.exit unwind label %75

75:                                               ; preds = %74
  %76 = landingpad { ptr, i32 }
          catch ptr null
  %77 = extractvalue { ptr, i32 } %76, 0
  call void @__clang_call_terminate(ptr %77) #20
  unreachable

_ZN2cv5utils5trace7details6RegionD2Ev.exit:       ; preds = %71, %74
  ret void

78:                                               ; preds = %32, %30
  %.pn = phi { ptr, i32 } [ %33, %32 ], [ %31, %30 ]
  call void @_ZN2cv5utils5trace7details6RegionD2Ev(ptr noundef nonnull align 8 dereferenceable(12) %5) #21
  resume { ptr, i32 } %.pn
}